; Function Attrs: mustprogress uwtable
define void @_ZNK6casadi10DaeBuilder7initialERKNSt7__cxx1112basic_stringIcSt11char_traitsIcESaIcEEE(ptr dead_on_unwind noalias writable sret(%"class.std::__cxx11::basic_string") align 8 %0, ptr noundef nonnull align 8 dereferenceable(8) %1, ptr noundef nonnull align 8 dereferenceable(32) %2) local_unnamed_addr #4 align 2 {
  %4 = tail call noundef ptr @_ZNK6casadi13GenericSharedINS_12SharedObjectENS_20SharedObjectInternalEEptEv(ptr noundef nonnull align 8 dereferenceable(8) %1)
  %5 = tail call noundef i64 @_ZNK6casadi18DaeBuilderInternal4findERKNSt7__cxx1112basic_stringIcSt11char_traitsIcESaIcEEE(ptr noundef nonnull align 8 dereferenceable(1017) %4, ptr noundef nonnull align 8 dereferenceable(32) %2)
  %6 = getelementptr inbounds nuw i8, ptr %4, i64 552
  %7 = getelementptr inbounds nuw i8, ptr %4, i64 560
  %8 = load ptr, ptr %7, align 8, !tbaa !103
  %9 = load ptr, ptr %6, align 8, !tbaa !104
  %10 = ptrtoint ptr %8 to i64
  %11 = ptrtoint ptr %9 to i64
  %12 = sub i64 %10, %11
  %13 = ashr exact i64 %12, 3
  %.not.i.i.i.i = icmp ult i64 %5, %13
  br i1 %.not.i.i.i.i, label %_ZNK6casadi18DaeBuilderInternal8variableERKNSt7__cxx1112basic_stringIcSt11char_traitsIcESaIcEEE.exit, label %14

14:                                               ; preds = %3
  tail call void (ptr, ...) @_ZSt24__throw_out_of_range_fmtPKcz(ptr noundef nonnull @.str.244, i64 noundef %5, i64 noundef %13) #27
  unreachable

_ZNK6casadi18DaeBuilderInternal8variableERKNSt7__cxx1112basic_stringIcSt11char_traitsIcESaIcEEE.exit: ; preds = %3
  %15 = getelementptr inbounds nuw ptr, ptr %9, i64 %5
  %16 = load ptr, ptr %15, align 8, !tbaa !105
  %17 = getelementptr inbounds nuw i8, ptr %16, i64 192
  %18 = load i32, ptr %17, align 8, !tbaa !216
  tail call void @_ZN6casadi9to_stringB5cxx11ENS_7InitialE(ptr dead_on_unwind writable sret(%"class.std::__cxx11::basic_string") align 8 %0, i32 noundef %18)
  ret void
}